; Function Attrs: mustprogress uwtable
define hidden void @_ZNK6google8protobuf8compiler4java31ImmutableEnumFieldLiteGenerator26GenerateInitializationCodeEPNS0_2io7PrinterE(ptr noundef nonnull align 8 dereferenceable(72) %this, ptr noundef %printer) unnamed_addr #3 align 2 {
entry:
  %descriptor_ = getelementptr inbounds i8, ptr %this, i64 8
  %0 = load ptr, ptr %descriptor_, align 8
  %call = tail call noundef zeroext i1 @_ZN6google8protobuf8compiler4java25IsDefaultValueJavaDefaultEPKNS0_15FieldDescriptorE(ptr noundef %0)
  br i1 %call, label %if.end, label %if.then

if.then:                                          ; preds = %entry
  %variables_ = getelementptr inbounds i8, ptr %this, i64 16
  tail call void @_ZN6google8protobuf2io7Printer5PrintIN4absl12lts_2023080213flat_hash_mapISt17basic_string_viewIcSt11char_traitsIcEENSt7__cxx1112basic_stringIcS9_SaIcEEENS5_18container_internal10StringHashENSF_8StringEqESaISt4pairIKSA_SE_EEEEEEvRKT_SA_(ptr noundef nonnull align 8 dereferenceable(256) %printer, ptr noundef nonnull align 8 dereferenceable(32) %variables_, i64 28, ptr nonnull @.str.24)
  br label %if.end

if.end:                                           ; preds = %if.then, %entry
  ret void
}